target datalayout = "e-m:e-p270:32:32-p271:32:32-p272:64:64-i64:64-i128:128-f80:128-n8:16:32:64-S128"
target triple = "x86_64-pc-linux-gnu"

; Function Attrs: nounwind uwtable
define i32 @H5LTdtype_to_text(i64 noundef %0, ptr noundef %1, i32 noundef %2, ptr noundef %3) #0 {
  %5 = alloca i32, align 4
  %6 = alloca i64, align 8
  %7 = alloca ptr, align 8
  %8 = alloca i32, align 4
  %9 = alloca ptr, align 8
  %10 = alloca i64, align 8
  %11 = alloca ptr, align 8
  %12 = alloca i32, align 4
  %13 = alloca i32, align 4
  store i64 %0, ptr %6, align 8, !tbaa !3
  store ptr %1, ptr %7, align 8, !tbaa !7
  store i32 %2, ptr %8, align 4, !tbaa !10
  store ptr %3, ptr %9, align 8, !tbaa !12
  call void @llvm.lifetime.start.p0(i64 8, ptr %10) #11
  store i64 1024, ptr %10, align 8, !tbaa !3
  call void @llvm.lifetime.start.p0(i64 8, ptr %11) #11
  store ptr null, ptr %11, align 8, !tbaa !7
  call void @llvm.lifetime.start.p0(i64 4, ptr %12) #11
  store i32 0, ptr %12, align 4, !tbaa !10
  %14 = load i32, ptr %8, align 4, !tbaa !10
  %15 = icmp sle i32 %14, -1
  br i1 %15, label %19, label %16

16:                                               ; preds = %4
  %17 = load i32, ptr %8, align 4, !tbaa !10
  %18 = icmp sge i32 %17, 3
  br i1 %18, label %19, label %20

19:                                               ; preds = %16, %4
  br label %70

20:                                               ; preds = %16
  %21 = load ptr, ptr %9, align 8, !tbaa !12
  %22 = icmp ne ptr %21, null
  br i1 %22, label %23, label %47

23:                                               ; preds = %20
  %24 = load ptr, ptr %7, align 8, !tbaa !7
  %25 = icmp ne ptr %24, null
  br i1 %25, label %47, label %26

26:                                               ; preds = %23
  %27 = load i64, ptr %10, align 8, !tbaa !3
  %28 = call noalias ptr @calloc(i64 noundef %27, i64 noundef 1) #15
  store ptr %28, ptr %11, align 8, !tbaa !7
  %29 = load ptr, ptr %11, align 8, !tbaa !7
  %30 = getelementptr inbounds i8, ptr %29, i64 0
  store i8 0, ptr %30, align 1, !tbaa !15
  %31 = load i64, ptr %6, align 8, !tbaa !3
  %32 = load ptr, ptr %11, align 8, !tbaa !7
  %33 = load i32, ptr %8, align 4, !tbaa !10
  %34 = call ptr @H5LT_dtype_to_text(i64 noundef %31, ptr noundef %32, i32 noundef %33, ptr noundef %10, i1 noundef zeroext true)
  store ptr %34, ptr %11, align 8, !tbaa !7
  %35 = icmp ne ptr %34, null
  br i1 %35, label %37, label %36

36:                                               ; preds = %26
  br label %70

37:                                               ; preds = %26
  %38 = load ptr, ptr %11, align 8, !tbaa !7
  %39 = call i64 @strlen(ptr noundef %38) #12
  %40 = add i64 %39, 1
  %41 = load ptr, ptr %9, align 8, !tbaa !12
  store i64 %40, ptr %41, align 8, !tbaa !3
  %42 = load ptr, ptr %11, align 8, !tbaa !7
  %43 = icmp ne ptr %42, null
  br i1 %43, label %44, label %46

44:                                               ; preds = %37
  %45 = load ptr, ptr %11, align 8, !tbaa !7
  call void @free(ptr noundef %45) #11
  br label %46

46:                                               ; preds = %44, %37
  store ptr null, ptr %11, align 8, !tbaa !7
  br label %68

47:                                               ; preds = %23, %20
  %48 = load ptr, ptr %9, align 8, !tbaa !12
  %49 = icmp ne ptr %48, null
  br i1 %49, label %50, label %67

50:                                               ; preds = %47
  %51 = load ptr, ptr %7, align 8, !tbaa !7
  %52 = icmp ne ptr %51, null
  br i1 %52, label %53, label %67

53:                                               ; preds = %50
  %54 = load i64, ptr %6, align 8, !tbaa !3
  %55 = load ptr, ptr %7, align 8, !tbaa !7
  %56 = load i32, ptr %8, align 4, !tbaa !10
  %57 = load ptr, ptr %9, align 8, !tbaa !12
  %58 = call ptr @H5LT_dtype_to_text(i64 noundef %54, ptr noundef %55, i32 noundef %56, ptr noundef %57, i1 noundef zeroext false)
  %59 = icmp ne ptr %58, null
  br i1 %59, label %61, label %60

60:                                               ; preds = %53
  br label %70

61:                                               ; preds = %53
  %62 = load ptr, ptr %7, align 8, !tbaa !7
  %63 = load ptr, ptr %9, align 8, !tbaa !12
  %64 = load i64, ptr %63, align 8, !tbaa !3
  %65 = sub i64 %64, 1
  %66 = getelementptr inbounds nuw i8, ptr %62, i64 %65
  store i8 0, ptr %66, align 1, !tbaa !15
  br label %67

67:                                               ; preds = %61, %50, %47
  br label %68

68:                                               ; preds = %67, %46
  %69 = load i32, ptr %12, align 4, !tbaa !10
  store i32 %69, ptr %5, align 4
  store i32 1, ptr %13, align 4
  br label %72

70:                                               ; preds = %60, %36, %19
  %71 = load ptr, ptr %11, align 8, !tbaa !7
  call void @free(ptr noundef %71) #11
  store i32 -1, ptr %5, align 4
  store i32 1, ptr %13, align 4
  br label %72

72:                                               ; preds = %70, %68
  call void @llvm.lifetime.end.p0(i64 4, ptr %12) #11
  call void @llvm.lifetime.end.p0(i64 8, ptr %11) #11
  call void @llvm.lifetime.end.p0(i64 8, ptr %10) #11
  %73 = load i32, ptr %5, align 4
  ret i32 %73
}