; Function Attrs: nounwind uwtable
define range(i32 -1, 1) i32 @H5LTdtype_to_text(i64 noundef %0, ptr noundef %1, i32 noundef %2, ptr noundef %3) local_unnamed_addr #0 {
  %5 = alloca i64, align 8
  call void @llvm.lifetime.start.p0(i64 8, ptr nonnull %5) #20
  store i64 1024, ptr %5, align 8, !tbaa !15
  %or.cond = icmp ugt i32 %2, 2
  br i1 %or.cond, label %23, label %6

6:                                                ; preds = %4
  %7 = icmp eq ptr %3, null
  %8 = icmp ne ptr %1, null
  %or.cond3 = or i1 %8, %7
  br i1 %or.cond3, label %15, label %9

9:                                                ; preds = %6
  %10 = tail call noalias dereferenceable_or_null(1024) ptr @calloc(i64 noundef 1024, i64 noundef 1) #25
  %11 = call ptr @H5LT_dtype_to_text(i64 noundef %0, ptr noundef nonnull %10, i32 noundef %2, ptr noundef nonnull %5, i1 noundef zeroext true)
  %.not = icmp eq ptr %11, null
  br i1 %.not, label %23, label %12

12:                                               ; preds = %9
  %13 = tail call i64 @strlen(ptr noundef nonnull dereferenceable(1) %11) #21
  %14 = add i64 %13, 1
  store i64 %14, ptr %3, align 8, !tbaa !15
  tail call void @free(ptr noundef nonnull %11) #20
  br label %23

15:                                               ; preds = %6
  %16 = icmp ne ptr %3, null
  %or.cond5 = and i1 %8, %16
  br i1 %or.cond5, label %17, label %23

17:                                               ; preds = %15
  %18 = tail call ptr @H5LT_dtype_to_text(i64 noundef %0, ptr noundef nonnull %1, i32 noundef %2, ptr noundef nonnull %3, i1 noundef zeroext false)
  %.not33 = icmp eq ptr %18, null
  br i1 %.not33, label %23, label %19

19:                                               ; preds = %17
  %20 = load i64, ptr %3, align 8, !tbaa !15
  %21 = getelementptr i8, ptr %1, i64 %20
  %22 = getelementptr i8, ptr %21, i64 -1
  store i8 0, ptr %22, align 1, !tbaa !7
  br label %23

23:                                               ; preds = %4, %9, %17, %12, %19, %15
  %.0 = phi i32 [ 0, %15 ], [ 0, %19 ], [ 0, %12 ], [ -1, %17 ], [ -1, %9 ], [ -1, %4 ]
  call void @llvm.lifetime.end.p0(i64 8, ptr nonnull %5) #20
  ret i32 %.0
}